; Function Attrs: mustprogress uwtable
define hidden void @_ZN2cv16CvCapture_Images5closeEv(ptr noundef nonnull align 8 dereferenceable(153) initializes((16, 24)) %0) local_unnamed_addr #3 align 2 personality ptr @__gxx_personality_v0 {
  %2 = getelementptr inbounds nuw i8, ptr %0, i64 8
  %3 = getelementptr inbounds nuw i8, ptr %0, i64 16
  store i64 0, ptr %3, align 8, !tbaa !3
  %4 = load ptr, ptr %2, align 8, !tbaa !11
  store i8 0, ptr %4, align 1, !tbaa !12
  %5 = getelementptr inbounds nuw i8, ptr %0, i64 56
  tail call void @_ZN2cv3Mat7releaseEv(ptr noundef nonnull align 8 dereferenceable(96) %5)
  %6 = getelementptr inbounds nuw i8, ptr %0, i64 44
  store i32 0, ptr %6, align 4, !tbaa !13
  %7 = getelementptr inbounds nuw i8, ptr %0, i64 40
  store i32 0, ptr %7, align 8, !tbaa !25
  %8 = getelementptr inbounds nuw i8, ptr %0, i64 48
  store i32 0, ptr %8, align 8, !tbaa !26
  %9 = getelementptr inbounds nuw i8, ptr %0, i64 152
  store i8 0, ptr %9, align 8, !tbaa !27
  ret void
}